target datalayout = "e-m:e-p270:32:32-p271:32:32-p272:64:64-i64:64-i128:128-f80:128-n8:16:32:64-S128"
target triple = "x86_64-unknown-linux-gnu"

%struct.Token = type { i32, ptr, i64, x86_fp80, ptr, i32, ptr, ptr, ptr, ptr, i32, i32, i8, i8, ptr, ptr }
%struct.Type = type { i32, i32, i32, i8, i8, ptr, ptr, ptr, ptr, i32, ptr, ptr, ptr, i8, i8, ptr, ptr, i8, ptr }

@.str.24 = private unnamed_addr constant [2 x i8] c")\00", align 1
@.str.26 = private unnamed_addr constant [5 x i8] c"void\00", align 1
@.str.57 = private unnamed_addr constant [2 x i8] c",\00", align 1
@.str.58 = private unnamed_addr constant [4 x i8] c"...\00", align 1

; Function Attrs: nounwind uwtable
define internal ptr @func_params(ptr noundef %rest, ptr noundef %tok, ptr noundef %ty) #0 {
entry:
  %retval = alloca ptr, align 8
  %rest.addr = alloca ptr, align 8
  %tok.addr = alloca ptr, align 8
  %ty.addr = alloca ptr, align 8
  %head = alloca %struct.Type, align 8
  %cur = alloca ptr, align 8
  %is_variadic = alloca i8, align 1
  %ty2 = alloca ptr, align 8
  %name = alloca ptr, align 8
  store ptr %rest, ptr %rest.addr, align 8
  store ptr %tok, ptr %tok.addr, align 8
  store ptr %ty, ptr %ty.addr, align 8
  %0 = load ptr, ptr %tok.addr, align 8
  %call = call zeroext i1 @equal(ptr noundef %0, ptr noundef @.str.26)
  br i1 %call, label %land.lhs.true, label %if.end

land.lhs.true:                                    ; preds = %entry
  %1 = load ptr, ptr %tok.addr, align 8
  %next = getelementptr inbounds %struct.Token, ptr %1, i32 0, i32 1
  %2 = load ptr, ptr %next, align 8
  %call1 = call zeroext i1 @equal(ptr noundef %2, ptr noundef @.str.24)
  br i1 %call1, label %if.then, label %if.end

if.then:                                          ; preds = %land.lhs.true
  %3 = load ptr, ptr %tok.addr, align 8
  %next2 = getelementptr inbounds %struct.Token, ptr %3, i32 0, i32 1
  %4 = load ptr, ptr %next2, align 8
  %next3 = getelementptr inbounds %struct.Token, ptr %4, i32 0, i32 1
  %5 = load ptr, ptr %next3, align 8
  %6 = load ptr, ptr %rest.addr, align 8
  store ptr %5, ptr %6, align 8
  %7 = load ptr, ptr %ty.addr, align 8
  %call4 = call ptr @func_type(ptr noundef %7)
  store ptr %call4, ptr %retval, align 8
  br label %return

if.end:                                           ; preds = %land.lhs.true, %entry
  call void @llvm.memset.p0.i64(ptr align 8 %head, i8 0, i64 120, i1 false)
  store ptr %head, ptr %cur, align 8
  store i8 0, ptr %is_variadic, align 1
  br label %while.cond

while.cond:                                       ; preds = %if.end27, %if.end
  %8 = load ptr, ptr %tok.addr, align 8
  %call5 = call zeroext i1 @equal(ptr noundef %8, ptr noundef @.str.24)
  %lnot = xor i1 %call5, true
  br i1 %lnot, label %while.body, label %while.end

while.body:                                       ; preds = %while.cond
  %9 = load ptr, ptr %cur, align 8
  %cmp = icmp ne ptr %9, %head
  br i1 %cmp, label %if.then6, label %if.end8

if.then6:                                         ; preds = %while.body
  %10 = load ptr, ptr %tok.addr, align 8
  %call7 = call ptr @skip(ptr noundef %10, ptr noundef @.str.57)
  store ptr %call7, ptr %tok.addr, align 8
  br label %if.end8

if.end8:                                          ; preds = %if.then6, %while.body
  %11 = load ptr, ptr %tok.addr, align 8
  %call9 = call zeroext i1 @equal(ptr noundef %11, ptr noundef @.str.58)
  br i1 %call9, label %if.then10, label %if.end13

if.then10:                                        ; preds = %if.end8
  store i8 1, ptr %is_variadic, align 1
  %12 = load ptr, ptr %tok.addr, align 8
  %next11 = getelementptr inbounds %struct.Token, ptr %12, i32 0, i32 1
  %13 = load ptr, ptr %next11, align 8
  store ptr %13, ptr %tok.addr, align 8
  %14 = load ptr, ptr %tok.addr, align 8
  %call12 = call ptr @skip(ptr noundef %14, ptr noundef @.str.24)
  br label %while.end

if.end13:                                         ; preds = %if.end8
  %15 = load ptr, ptr %tok.addr, align 8
  %call14 = call ptr @declspec(ptr noundef %tok.addr, ptr noundef %15, ptr noundef null)
  store ptr %call14, ptr %ty2, align 8
  %16 = load ptr, ptr %tok.addr, align 8
  %17 = load ptr, ptr %ty2, align 8
  %call15 = call ptr @declarator(ptr noundef %tok.addr, ptr noundef %16, ptr noundef %17)
  store ptr %call15, ptr %ty2, align 8
  %18 = load ptr, ptr %ty2, align 8
  %name16 = getelementptr inbounds %struct.Type, ptr %18, i32 0, i32 7
  %19 = load ptr, ptr %name16, align 8
  store ptr %19, ptr %name, align 8
  %20 = load ptr, ptr %ty2, align 8
  %kind = getelementptr inbounds %struct.Type, ptr %20, i32 0, i32 0
  %21 = load i32, ptr %kind, align 8
  %cmp17 = icmp eq i32 %21, 12
  br i1 %cmp17, label %if.then18, label %if.else

if.then18:                                        ; preds = %if.end13
  %22 = load ptr, ptr %ty2, align 8
  %base = getelementptr inbounds %struct.Type, ptr %22, i32 0, i32 6
  %23 = load ptr, ptr %base, align 8
  %call19 = call ptr @pointer_to(ptr noundef %23)
  store ptr %call19, ptr %ty2, align 8
  %24 = load ptr, ptr %name, align 8
  %25 = load ptr, ptr %ty2, align 8
  %name20 = getelementptr inbounds %struct.Type, ptr %25, i32 0, i32 7
  store ptr %24, ptr %name20, align 8
  br label %if.end27

if.else:                                          ; preds = %if.end13
  %26 = load ptr, ptr %ty2, align 8
  %kind21 = getelementptr inbounds %struct.Type, ptr %26, i32 0, i32 0
  %27 = load i32, ptr %kind21, align 8
  %cmp22 = icmp eq i32 %27, 11
  br i1 %cmp22, label %if.then23, label %if.end26

if.then23:                                        ; preds = %if.else
  %28 = load ptr, ptr %ty2, align 8
  %call24 = call ptr @pointer_to(ptr noundef %28)
  store ptr %call24, ptr %ty2, align 8
  %29 = load ptr, ptr %name, align 8
  %30 = load ptr, ptr %ty2, align 8
  %name25 = getelementptr inbounds %struct.Type, ptr %30, i32 0, i32 7
  store ptr %29, ptr %name25, align 8
  br label %if.end26

if.end26:                                         ; preds = %if.then23, %if.else
  br label %if.end27

if.end27:                                         ; preds = %if.end26, %if.then18
  %31 = load ptr, ptr %ty2, align 8
  %call28 = call ptr @copy_type(ptr noundef %31)
  %32 = load ptr, ptr %cur, align 8
  %next29 = getelementptr inbounds %struct.Type, ptr %32, i32 0, i32 18
  store ptr %call28, ptr %next29, align 8
  store ptr %call28, ptr %cur, align 8
  br label %while.cond, !llvm.loop !25

while.end:                                        ; preds = %if.then10, %while.cond
  %33 = load ptr, ptr %cur, align 8
  %cmp30 = icmp eq ptr %33, %head
  br i1 %cmp30, label %if.then31, label %if.end32

if.then31:                                        ; preds = %while.end
  store i8 1, ptr %is_variadic, align 1
  br label %if.end32

if.end32:                                         ; preds = %if.then31, %while.end
  %34 = load ptr, ptr %ty.addr, align 8
  %call33 = call ptr @func_type(ptr noundef %34)
  store ptr %call33, ptr %ty.addr, align 8
  %next34 = getelementptr inbounds %struct.Type, ptr %head, i32 0, i32 18
  %35 = load ptr, ptr %next34, align 8
  %36 = load ptr, ptr %ty.addr, align 8
  %params = getelementptr inbounds %struct.Type, ptr %36, i32 0, i32 16
  store ptr %35, ptr %params, align 8
  %37 = load i8, ptr %is_variadic, align 1
  %tobool = trunc i8 %37 to i1
  %38 = load ptr, ptr %ty.addr, align 8
  %is_variadic35 = getelementptr inbounds %struct.Type, ptr %38, i32 0, i32 17
  %frombool = zext i1 %tobool to i8
  store i8 %frombool, ptr %is_variadic35, align 8
  %39 = load ptr, ptr %tok.addr, align 8
  %next36 = getelementptr inbounds %struct.Token, ptr %39, i32 0, i32 1
  %40 = load ptr, ptr %next36, align 8
  %41 = load ptr, ptr %rest.addr, align 8
  store ptr %40, ptr %41, align 8
  %42 = load ptr, ptr %ty.addr, align 8
  store ptr %42, ptr %retval, align 8
  br label %return

return:                                           ; preds = %if.end32, %if.then
  %43 = load ptr, ptr %retval, align 8
  ret ptr %43
}