; Function Attrs: nounwind uwtable
define internal fastcc ptr @func_params(ptr nocapture noundef writeonly %rest, ptr noundef %tok, ptr noundef %ty) unnamed_addr #0 {
entry:
  %tok.addr = alloca ptr, align 8
  %head = alloca %struct.Type, align 8
  store ptr %tok, ptr %tok.addr, align 8
  %call = tail call zeroext i1 @equal(ptr noundef %tok, ptr noundef nonnull @.str.26) #13
  br i1 %call, label %land.lhs.true, label %if.end

land.lhs.true:                                    ; preds = %entry
  %next = getelementptr inbounds %struct.Token, ptr %tok, i64 0, i32 1
  %0 = load ptr, ptr %next, align 8
  %call1 = tail call zeroext i1 @equal(ptr noundef %0, ptr noundef nonnull @.str.24) #13
  br i1 %call1, label %if.then, label %if.end

if.then:                                          ; preds = %land.lhs.true
  %1 = load ptr, ptr %next, align 8
  %next3 = getelementptr inbounds %struct.Token, ptr %1, i64 0, i32 1
  %2 = load ptr, ptr %next3, align 8
  store ptr %2, ptr %rest, align 8
  %call4 = tail call ptr @func_type(ptr noundef %ty) #13
  br label %return

if.end:                                           ; preds = %land.lhs.true, %entry
  call void @llvm.memset.p0.i64(ptr noundef nonnull align 8 dereferenceable(120) %head, i8 0, i64 120, i1 false)
  %call521 = tail call zeroext i1 @equal(ptr noundef %tok, ptr noundef nonnull @.str.24) #13
  br i1 %call521, label %while.end, label %while.body

while.body:                                       ; preds = %if.end, %if.end27
  %cur.022 = phi ptr [ %call28, %if.end27 ], [ %head, %if.end ]
  %cmp.not = icmp eq ptr %cur.022, %head
  %.pre = load ptr, ptr %tok.addr, align 8
  br i1 %cmp.not, label %if.end8, label %if.then6

if.then6:                                         ; preds = %while.body
  %call7 = call ptr @skip(ptr noundef %.pre, ptr noundef nonnull @.str.57) #13
  store ptr %call7, ptr %tok.addr, align 8
  br label %if.end8

if.end8:                                          ; preds = %if.then6, %while.body
  %3 = phi ptr [ %call7, %if.then6 ], [ %.pre, %while.body ]
  %call9 = call zeroext i1 @equal(ptr noundef %3, ptr noundef nonnull @.str.58) #13
  %4 = load ptr, ptr %tok.addr, align 8
  br i1 %call9, label %if.then10, label %if.end13

if.then10:                                        ; preds = %if.end8
  %next11 = getelementptr inbounds %struct.Token, ptr %4, i64 0, i32 1
  %5 = load ptr, ptr %next11, align 8
  store ptr %5, ptr %tok.addr, align 8
  %call12 = call ptr @skip(ptr noundef %5, ptr noundef nonnull @.str.24) #13
  br label %while.end

if.end13:                                         ; preds = %if.end8
  %call14 = call fastcc ptr @declspec(ptr noundef nonnull %tok.addr, ptr noundef %4, ptr noundef null)
  %6 = load ptr, ptr %tok.addr, align 8
  %call15 = call fastcc ptr @declarator(ptr noundef nonnull %tok.addr, ptr noundef %6, ptr noundef %call14)
  %name16 = getelementptr inbounds %struct.Type, ptr %call15, i64 0, i32 7
  %7 = load ptr, ptr %name16, align 8
  %8 = load i32, ptr %call15, align 8
  switch i32 %8, label %if.end27 [
    i32 12, label %if.then18
    i32 11, label %if.then23
  ]

if.then18:                                        ; preds = %if.end13
  %base = getelementptr inbounds %struct.Type, ptr %call15, i64 0, i32 6
  %9 = load ptr, ptr %base, align 8
  %call19 = call ptr @pointer_to(ptr noundef %9) #13
  br label %if.end27.sink.split

if.then23:                                        ; preds = %if.end13
  %call24 = call ptr @pointer_to(ptr noundef nonnull %call15) #13
  br label %if.end27.sink.split

if.end27.sink.split:                              ; preds = %if.then18, %if.then23
  %call24.sink = phi ptr [ %call24, %if.then23 ], [ %call19, %if.then18 ]
  %name25 = getelementptr inbounds %struct.Type, ptr %call24.sink, i64 0, i32 7
  store ptr %7, ptr %name25, align 8
  br label %if.end27

if.end27:                                         ; preds = %if.end27.sink.split, %if.end13
  %ty2.0 = phi ptr [ %call15, %if.end13 ], [ %call24.sink, %if.end27.sink.split ]
  %call28 = call ptr @copy_type(ptr noundef nonnull %ty2.0) #13
  %next29 = getelementptr inbounds %struct.Type, ptr %cur.022, i64 0, i32 18
  store ptr %call28, ptr %next29, align 8
  %10 = load ptr, ptr %tok.addr, align 8
  %call5 = call zeroext i1 @equal(ptr noundef %10, ptr noundef nonnull @.str.24) #13
  br i1 %call5, label %while.end, label %while.body, !llvm.loop !28

while.end:                                        ; preds = %if.end27, %if.end, %if.then10
  %cur.020 = phi ptr [ %cur.022, %if.then10 ], [ %head, %if.end ], [ %call28, %if.end27 ]
  %call518 = phi i1 [ true, %if.then10 ], [ false, %if.end ], [ false, %if.end27 ]
  %cmp30 = icmp eq ptr %cur.020, %head
  %spec.select = or i1 %cmp30, %call518
  %call33 = call ptr @func_type(ptr noundef %ty) #13
  %next34 = getelementptr inbounds %struct.Type, ptr %head, i64 0, i32 18
  %11 = load ptr, ptr %next34, align 8
  %params = getelementptr inbounds %struct.Type, ptr %call33, i64 0, i32 16
  store ptr %11, ptr %params, align 8
  %is_variadic35 = getelementptr inbounds %struct.Type, ptr %call33, i64 0, i32 17
  %frombool = zext i1 %spec.select to i8
  store i8 %frombool, ptr %is_variadic35, align 8
  %12 = load ptr, ptr %tok.addr, align 8
  %next36 = getelementptr inbounds %struct.Token, ptr %12, i64 0, i32 1
  %13 = load ptr, ptr %next36, align 8
  store ptr %13, ptr %rest, align 8
  br label %return

return:                                           ; preds = %while.end, %if.then
  %retval.0 = phi ptr [ %call4, %if.then ], [ %call33, %while.end ]
  ret ptr %retval.0
}